target datalayout = "e-m:e-p270:32:32-p271:32:32-p272:64:64-i64:64-i128:128-f80:128-n8:16:32:64-S128"
target triple = "x86_64-unknown-linux-gnu"

%class.btVector3 = type { [4 x float] }
%class.btKinematicCharacterController = type <{ %class.btCharacterControllerInterface, float, [4 x i8], ptr, ptr, float, float, float, float, float, float, float, float, float, float, float, float, float, %class.btVector3, %class.btVector3, %class.btVector3, %class.btVector3, %class.btVector3, float, %class.btVector3, %class.btQuaternion, %class.btQuaternion, %class.btAlignedObjectArray, i8, [3 x i8], %class.btVector3, float, float, i8, i8, i8, i8, float, %class.btVector3, %class.btVector3, i8, i8, i8, i8 }>
%class.btCharacterControllerInterface = type { %class.btActionInterface }
%class.btActionInterface = type { ptr }
%class.btQuaternion = type { %class.btQuadWord }
%class.btQuadWord = type { [4 x float] }
%class.btAlignedObjectArray = type <{ %class.btAlignedAllocator, [3 x i8], i32, i32, [4 x i8], ptr, i8, [7 x i8] }>
%class.btAlignedAllocator = type { i8 }

; Function Attrs: mustprogress nounwind uwtable
define linkonce_odr dso_local noundef nonnull align 4 dereferenceable(16) ptr @_ZN9btVector3mLERKf(ptr noundef nonnull align 4 dereferenceable(16) %this, ptr noundef nonnull align 4 dereferenceable(4) %s) #1 comdat align 2 {
entry:
  %this.addr = alloca ptr, align 8
  %s.addr = alloca ptr, align 8
  store ptr %this, ptr %this.addr, align 8
  store ptr %s, ptr %s.addr, align 8
  %this1 = load ptr, ptr %this.addr, align 8
  %0 = load ptr, ptr %s.addr, align 8
  %1 = load float, ptr %0, align 4
  %m_floats = getelementptr inbounds %class.btVector3, ptr %this1, i32 0, i32 0
  %arrayidx = getelementptr inbounds [4 x float], ptr %m_floats, i64 0, i64 0
  %2 = load float, ptr %arrayidx, align 4
  %mul = fmul float %2, %1
  store float %mul, ptr %arrayidx, align 4
  %3 = load ptr, ptr %s.addr, align 8
  %4 = load float, ptr %3, align 4
  %m_floats2 = getelementptr inbounds %class.btVector3, ptr %this1, i32 0, i32 0
  %arrayidx3 = getelementptr inbounds [4 x float], ptr %m_floats2, i64 0, i64 1
  %5 = load float, ptr %arrayidx3, align 4
  %mul4 = fmul float %5, %4
  store float %mul4, ptr %arrayidx3, align 4
  %6 = load ptr, ptr %s.addr, align 8
  %7 = load float, ptr %6, align 4
  %m_floats5 = getelementptr inbounds %class.btVector3, ptr %this1, i32 0, i32 0
  %arrayidx6 = getelementptr inbounds [4 x float], ptr %m_floats5, i64 0, i64 2
  %8 = load float, ptr %arrayidx6, align 4
  %mul7 = fmul float %8, %7
  store float %mul7, ptr %arrayidx6, align 4
  ret ptr %this1
}

; Function Attrs: mustprogress uwtable
define linkonce_odr dso_local noundef nonnull align 4 dereferenceable(16) ptr @_ZN9btVector3dVERKf(ptr noundef nonnull align 4 dereferenceable(16) %this, ptr noundef nonnull align 4 dereferenceable(4) %s) #3 comdat align 2 {
entry:
  %this.addr = alloca ptr, align 8
  %s.addr = alloca ptr, align 8
  %ref.tmp = alloca float, align 4
  store ptr %this, ptr %this.addr, align 8
  store ptr %s, ptr %s.addr, align 8
  %this1 = load ptr, ptr %this.addr, align 8
  %0 = load ptr, ptr %s.addr, align 8
  %1 = load float, ptr %0, align 4
  %div = fdiv float 1.000000e+00, %1
  store float %div, ptr %ref.tmp, align 4
  %call = call noundef nonnull align 4 dereferenceable(16) ptr @_ZN9btVector3mLERKf(ptr noundef nonnull align 4 dereferenceable(16) %this1, ptr noundef nonnull align 4 dereferenceable(4) %ref.tmp)
  ret ptr %call
}

; Function Attrs: mustprogress nounwind uwtable
define linkonce_odr dso_local noundef float @_ZNK9btVector33dotERKS_(ptr noundef nonnull align 4 dereferenceable(16) %this, ptr noundef nonnull align 4 dereferenceable(16) %v) #1 comdat align 2 {
entry:
  %this.addr = alloca ptr, align 8
  %v.addr = alloca ptr, align 8
  store ptr %this, ptr %this.addr, align 8
  store ptr %v, ptr %v.addr, align 8
  %this1 = load ptr, ptr %this.addr, align 8
  %m_floats = getelementptr inbounds %class.btVector3, ptr %this1, i32 0, i32 0
  %arrayidx = getelementptr inbounds [4 x float], ptr %m_floats, i64 0, i64 0
  %0 = load float, ptr %arrayidx, align 4
  %1 = load ptr, ptr %v.addr, align 8
  %m_floats2 = getelementptr inbounds %class.btVector3, ptr %1, i32 0, i32 0
  %arrayidx3 = getelementptr inbounds [4 x float], ptr %m_floats2, i64 0, i64 0
  %2 = load float, ptr %arrayidx3, align 4
  %m_floats4 = getelementptr inbounds %class.btVector3, ptr %this1, i32 0, i32 0
  %arrayidx5 = getelementptr inbounds [4 x float], ptr %m_floats4, i64 0, i64 1
  %3 = load float, ptr %arrayidx5, align 4
  %4 = load ptr, ptr %v.addr, align 8
  %m_floats6 = getelementptr inbounds %class.btVector3, ptr %4, i32 0, i32 0
  %arrayidx7 = getelementptr inbounds [4 x float], ptr %m_floats6, i64 0, i64 1
  %5 = load float, ptr %arrayidx7, align 4
  %mul8 = fmul float %3, %5
  %6 = call float @llvm.fmuladd.f32(float %0, float %2, float %mul8)
  %m_floats9 = getelementptr inbounds %class.btVector3, ptr %this1, i32 0, i32 0
  %arrayidx10 = getelementptr inbounds [4 x float], ptr %m_floats9, i64 0, i64 2
  %7 = load float, ptr %arrayidx10, align 4
  %8 = load ptr, ptr %v.addr, align 8
  %m_floats11 = getelementptr inbounds %class.btVector3, ptr %8, i32 0, i32 0
  %arrayidx12 = getelementptr inbounds [4 x float], ptr %m_floats11, i64 0, i64 2
  %9 = load float, ptr %arrayidx12, align 4
  %10 = call float @llvm.fmuladd.f32(float %7, float %9, float %6)
  ret float %10
}

; Function Attrs: mustprogress uwtable
define linkonce_odr dso_local noundef nonnull align 4 dereferenceable(16) ptr @_ZN9btVector39normalizeEv(ptr noundef nonnull align 4 dereferenceable(16) %this) #3 comdat align 2 {
entry:
  %this.addr = alloca ptr, align 8
  %ref.tmp = alloca float, align 4
  store ptr %this, ptr %this.addr, align 8
  %this1 = load ptr, ptr %this.addr, align 8
  %call = call noundef float @_ZNK9btVector36lengthEv(ptr noundef nonnull align 4 dereferenceable(16) %this1)
  store float %call, ptr %ref.tmp, align 4
  %call2 = call noundef nonnull align 4 dereferenceable(16) ptr @_ZN9btVector3dVERKf(ptr noundef nonnull align 4 dereferenceable(16) %this1, ptr noundef nonnull align 4 dereferenceable(4) %ref.tmp)
  ret ptr %call2
}

; Function Attrs: mustprogress nounwind uwtable
define linkonce_odr dso_local noundef float @_Z6btSqrtf(float noundef %y) #1 comdat {
entry:
  %y.addr = alloca float, align 4
  store float %y, ptr %y.addr, align 4
  %0 = load float, ptr %y.addr, align 4
  %call = call float @sqrtf(float noundef %0) #7
  ret float %call
}

; Function Attrs: mustprogress nounwind uwtable
define linkonce_odr dso_local noundef float @_ZNK9btVector37length2Ev(ptr noundef nonnull align 4 dereferenceable(16) %this) #1 comdat align 2 {
entry:
  %this.addr = alloca ptr, align 8
  store ptr %this, ptr %this.addr, align 8
  %this1 = load ptr, ptr %this.addr, align 8
  %call = call noundef float @_ZNK9btVector33dotERKS_(ptr noundef nonnull align 4 dereferenceable(16) %this1, ptr noundef nonnull align 4 dereferenceable(16) %this1)
  ret float %call
}

; Function Attrs: mustprogress uwtable
define linkonce_odr dso_local { <2 x float>, <2 x float> } @_ZNK9btVector310normalizedEv(ptr noundef nonnull align 4 dereferenceable(16) %this) #3 comdat align 2 {
entry:
  %retval = alloca %class.btVector3, align 4
  %this.addr = alloca ptr, align 8
  %nrm = alloca %class.btVector3, align 4
  store ptr %this, ptr %this.addr, align 8
  %this1 = load ptr, ptr %this.addr, align 8
  call void @llvm.memcpy.p0.p0.i64(ptr align 4 %nrm, ptr align 4 %this1, i64 16, i1 false)
  %call = call noundef nonnull align 4 dereferenceable(16) ptr @_ZN9btVector39normalizeEv(ptr noundef nonnull align 4 dereferenceable(16) %nrm)
  call void @llvm.memcpy.p0.p0.i64(ptr align 4 %retval, ptr align 4 %call, i64 16, i1 false)
  %coerce.dive = getelementptr inbounds %class.btVector3, ptr %retval, i32 0, i32 0
  %0 = load { <2 x float>, <2 x float> }, ptr %coerce.dive, align 4
  ret { <2 x float>, <2 x float> } %0
}

; Function Attrs: mustprogress uwtable
define linkonce_odr dso_local noundef float @_ZNK9btVector36lengthEv(ptr noundef nonnull align 4 dereferenceable(16) %this) #3 comdat align 2 {
entry:
  %this.addr = alloca ptr, align 8
  store ptr %this, ptr %this.addr, align 8
  %this1 = load ptr, ptr %this.addr, align 8
  %call = call noundef float @_ZNK9btVector37length2Ev(ptr noundef nonnull align 4 dereferenceable(16) %this1)
  %call2 = call noundef float @_Z6btSqrtf(float noundef %call)
  ret float %call2
}

; Function Attrs: mustprogress nounwind uwtable
define linkonce_odr dso_local void @_ZN9btVector3C2ERKfS1_S1_(ptr noundef nonnull align 4 dereferenceable(16) %this, ptr noundef nonnull align 4 dereferenceable(4) %_x, ptr noundef nonnull align 4 dereferenceable(4) %_y, ptr noundef nonnull align 4 dereferenceable(4) %_z) unnamed_addr #1 comdat align 2 {
entry:
  %this.addr = alloca ptr, align 8
  %_x.addr = alloca ptr, align 8
  %_y.addr = alloca ptr, align 8
  %_z.addr = alloca ptr, align 8
  store ptr %this, ptr %this.addr, align 8
  store ptr %_x, ptr %_x.addr, align 8
  store ptr %_y, ptr %_y.addr, align 8
  store ptr %_z, ptr %_z.addr, align 8
  %this1 = load ptr, ptr %this.addr, align 8
  %0 = load ptr, ptr %_x.addr, align 8
  %1 = load float, ptr %0, align 4
  %m_floats = getelementptr inbounds %class.btVector3, ptr %this1, i32 0, i32 0
  %arrayidx = getelementptr inbounds [4 x float], ptr %m_floats, i64 0, i64 0
  store float %1, ptr %arrayidx, align 4
  %2 = load ptr, ptr %_y.addr, align 8
  %3 = load float, ptr %2, align 4
  %m_floats2 = getelementptr inbounds %class.btVector3, ptr %this1, i32 0, i32 0
  %arrayidx3 = getelementptr inbounds [4 x float], ptr %m_floats2, i64 0, i64 1
  store float %3, ptr %arrayidx3, align 4
  %4 = load ptr, ptr %_z.addr, align 8
  %5 = load float, ptr %4, align 4
  %m_floats4 = getelementptr inbounds %class.btVector3, ptr %this1, i32 0, i32 0
  %arrayidx5 = getelementptr inbounds [4 x float], ptr %m_floats4, i64 0, i64 2
  store float %5, ptr %arrayidx5, align 4
  %m_floats6 = getelementptr inbounds %class.btVector3, ptr %this1, i32 0, i32 0
  %arrayidx7 = getelementptr inbounds [4 x float], ptr %m_floats6, i64 0, i64 3
  store float 0.000000e+00, ptr %arrayidx7, align 4
  ret void
}

; Function Attrs: mustprogress uwtable
define internal { <2 x float>, <2 x float> } @_ZL19getNormalizedVectorRK9btVector3(ptr noundef nonnull align 4 dereferenceable(16) %v) #2 {
entry:
  %retval = alloca %class.btVector3, align 4
  %v.addr = alloca ptr, align 8
  %ref.tmp = alloca float, align 4
  %ref.tmp1 = alloca float, align 4
  %ref.tmp2 = alloca float, align 4
  %ref.tmp3 = alloca %class.btVector3, align 4
  store ptr %v, ptr %v.addr, align 8
  store float 0.000000e+00, ptr %ref.tmp, align 4
  store float 0.000000e+00, ptr %ref.tmp1, align 4
  store float 0.000000e+00, ptr %ref.tmp2, align 4
  call void @_ZN9btVector3C2ERKfS1_S1_(ptr noundef nonnull align 4 dereferenceable(16) %retval, ptr noundef nonnull align 4 dereferenceable(4) %ref.tmp, ptr noundef nonnull align 4 dereferenceable(4) %ref.tmp1, ptr noundef nonnull align 4 dereferenceable(4) %ref.tmp2)
  %0 = load ptr, ptr %v.addr, align 8
  %call = call noundef float @_ZNK9btVector36lengthEv(ptr noundef nonnull align 4 dereferenceable(16) %0)
  %cmp = fcmp ogt float %call, 0x3E80000000000000
  br i1 %cmp, label %if.then, label %if.end

if.then:                                          ; preds = %entry
  %1 = load ptr, ptr %v.addr, align 8
  %call4 = call { <2 x float>, <2 x float> } @_ZNK9btVector310normalizedEv(ptr noundef nonnull align 4 dereferenceable(16) %1)
  %coerce.dive = getelementptr inbounds %class.btVector3, ptr %ref.tmp3, i32 0, i32 0
  %2 = getelementptr inbounds { <2 x float>, <2 x float> }, ptr %coerce.dive, i32 0, i32 0
  %3 = extractvalue { <2 x float>, <2 x float> } %call4, 0
  store <2 x float> %3, ptr %2, align 4
  %4 = getelementptr inbounds { <2 x float>, <2 x float> }, ptr %coerce.dive, i32 0, i32 1
  %5 = extractvalue { <2 x float>, <2 x float> } %call4, 1
  store <2 x float> %5, ptr %4, align 4
  call void @llvm.memcpy.p0.p0.i64(ptr align 4 %retval, ptr align 4 %ref.tmp3, i64 16, i1 false)
  br label %if.end

if.end:                                           ; preds = %if.then, %entry
  %coerce.dive5 = getelementptr inbounds %class.btVector3, ptr %retval, i32 0, i32 0
  %6 = load { <2 x float>, <2 x float> }, ptr %coerce.dive5, align 4
  ret { <2 x float>, <2 x float> } %6
}

; Function Attrs: mustprogress uwtable
define dso_local void @_ZN30btKinematicCharacterController26setVelocityForTimeIntervalERK9btVector3f(ptr noundef nonnull align 8 dereferenceable(319) %this, ptr noundef nonnull align 4 dereferenceable(16) %velocity, float noundef %timeInterval) unnamed_addr #2 align 2 {
entry:
  %this.addr = alloca ptr, align 8
  %velocity.addr = alloca ptr, align 8
  %timeInterval.addr = alloca float, align 4
  %ref.tmp = alloca %class.btVector3, align 4
  store ptr %this, ptr %this.addr, align 8
  store ptr %velocity, ptr %velocity.addr, align 8
  store float %timeInterval, ptr %timeInterval.addr, align 4
  %this1 = load ptr, ptr %this.addr, align 8
  %m_useWalkDirection = getelementptr inbounds %class.btKinematicCharacterController, ptr %this1, i32 0, i32 36
  store i8 0, ptr %m_useWalkDirection, align 1
  %0 = load ptr, ptr %velocity.addr, align 8
  %m_walkDirection = getelementptr inbounds %class.btKinematicCharacterController, ptr %this1, i32 0, i32 18
  call void @llvm.memcpy.p0.p0.i64(ptr align 4 %m_walkDirection, ptr align 4 %0, i64 16, i1 false)
  %m_walkDirection2 = getelementptr inbounds %class.btKinematicCharacterController, ptr %this1, i32 0, i32 18
  %call = call { <2 x float>, <2 x float> } @_ZL19getNormalizedVectorRK9btVector3(ptr noundef nonnull align 4 dereferenceable(16) %m_walkDirection2)
  %coerce.dive = getelementptr inbounds %class.btVector3, ptr %ref.tmp, i32 0, i32 0
  %1 = getelementptr inbounds { <2 x float>, <2 x float> }, ptr %coerce.dive, i32 0, i32 0
  %2 = extractvalue { <2 x float>, <2 x float> } %call, 0
  store <2 x float> %2, ptr %1, align 4
  %3 = getelementptr inbounds { <2 x float>, <2 x float> }, ptr %coerce.dive, i32 0, i32 1
  %4 = extractvalue { <2 x float>, <2 x float> } %call, 1
  store <2 x float> %4, ptr %3, align 4
  %m_normalizedDirection = getelementptr inbounds %class.btKinematicCharacterController, ptr %this1, i32 0, i32 19
  call void @llvm.memcpy.p0.p0.i64(ptr align 4 %m_normalizedDirection, ptr align 4 %ref.tmp, i64 16, i1 false)
  %5 = load float, ptr %timeInterval.addr, align 4
  %m_velocityTimeInterval = getelementptr inbounds %class.btKinematicCharacterController, ptr %this1, i32 0, i32 37
  %6 = load float, ptr %m_velocityTimeInterval, align 8
  %add = fadd float %6, %5
  store float %add, ptr %m_velocityTimeInterval, align 8
  ret void
}