; Function Attrs: mustprogress nofree norecurse nosync nounwind willreturn memory(argmem: readwrite) uwtable
define dso_local void @_ZN30btKinematicCharacterController26setVelocityForTimeIntervalERK9btVector3f(ptr nocapture noundef nonnull align 8 dereferenceable(319) %this, ptr nocapture noundef nonnull readonly align 4 dereferenceable(16) %velocity, float noundef %timeInterval) unnamed_addr #9 align 2 {
entry:
  %m_useWalkDirection = getelementptr inbounds i8, ptr %this, i64 279
  store i8 0, ptr %m_useWalkDirection, align 1
  %m_walkDirection = getelementptr inbounds i8, ptr %this, i64 84
  tail call void @llvm.memcpy.p0.p0.i64(ptr noundef nonnull align 4 dereferenceable(16) %m_walkDirection, ptr noundef nonnull align 4 dereferenceable(16) %velocity, i64 16, i1 false)
  %0 = load float, ptr %m_walkDirection, align 4
  %arrayidx5.i.i.i.i = getelementptr inbounds i8, ptr %this, i64 88
  %1 = load float, ptr %arrayidx5.i.i.i.i, align 8
  %mul8.i.i.i.i = fmul float %1, %1
  %2 = tail call float @llvm.fmuladd.f32(float %0, float %0, float %mul8.i.i.i.i)
  %arrayidx10.i.i.i.i = getelementptr inbounds i8, ptr %this, i64 92
  %3 = load float, ptr %arrayidx10.i.i.i.i, align 4
  %4 = tail call noundef float @llvm.fmuladd.f32(float %3, float %3, float %2)
  %sqrt.i.i = tail call noundef float @llvm.sqrt.f32(float %4)
  %cmp.i = fcmp ogt float %sqrt.i.i, 0x3E80000000000000
  br i1 %cmp.i, label %if.then.i, label %_ZL19getNormalizedVectorRK9btVector3.exit

if.then.i:                                        ; preds = %entry
  %nrm.sroa.0.0.copyload.i.i = load <2 x float>, ptr %m_walkDirection, align 4
  %nrm.sroa.6.0.copyload.i.i = load <2 x float>, ptr %arrayidx10.i.i.i.i, align 4
  %5 = fmul <2 x float> %nrm.sroa.0.0.copyload.i.i, %nrm.sroa.0.0.copyload.i.i
  %mul8.i.i.i.i.i.i = extractelement <2 x float> %5, i64 1
  %6 = extractelement <2 x float> %nrm.sroa.0.0.copyload.i.i, i64 0
  %7 = tail call float @llvm.fmuladd.f32(float %6, float %6, float %mul8.i.i.i.i.i.i)
  %nrm.sroa.6.8.vec.extract.i.i = extractelement <2 x float> %nrm.sroa.6.0.copyload.i.i, i64 0
  %8 = tail call noundef float @llvm.fmuladd.f32(float %nrm.sroa.6.8.vec.extract.i.i, float %nrm.sroa.6.8.vec.extract.i.i, float %7)
  %sqrt.i.i.i.i = tail call noundef float @llvm.sqrt.f32(float %8)
  %div.i.i.i.i = fdiv float 1.000000e+00, %sqrt.i.i.i.i
  %9 = insertelement <2 x float> poison, float %div.i.i.i.i, i64 0
  %10 = shufflevector <2 x float> %9, <2 x float> poison, <2 x i32> zeroinitializer
  %11 = fmul <2 x float> %nrm.sroa.0.0.copyload.i.i, %10
  %mul7.i.i.i.i.i = fmul float %nrm.sroa.6.8.vec.extract.i.i, %div.i.i.i.i
  %nrm.sroa.6.8.vec.insert.i.i = insertelement <2 x float> %nrm.sroa.6.0.copyload.i.i, float %mul7.i.i.i.i.i, i64 0
  br label %_ZL19getNormalizedVectorRK9btVector3.exit

_ZL19getNormalizedVectorRK9btVector3.exit:        ; preds = %entry, %if.then.i
  %retval.sroa.0.0.i = phi <2 x float> [ %11, %if.then.i ], [ zeroinitializer, %entry ]
  %retval.sroa.4.0.i = phi <2 x float> [ %nrm.sroa.6.8.vec.insert.i.i, %if.then.i ], [ zeroinitializer, %entry ]
  %m_normalizedDirection = getelementptr inbounds i8, ptr %this, i64 100
  store <2 x float> %retval.sroa.0.0.i, ptr %m_normalizedDirection, align 4
  %ref.tmp.sroa.2.0.m_normalizedDirection.sroa_idx = getelementptr inbounds i8, ptr %this, i64 108
  store <2 x float> %retval.sroa.4.0.i, ptr %ref.tmp.sroa.2.0.m_normalizedDirection.sroa_idx, align 4
  %m_velocityTimeInterval = getelementptr inbounds i8, ptr %this, i64 280
  %12 = load float, ptr %m_velocityTimeInterval, align 8
  %add = fadd float %12, %timeInterval
  store float %add, ptr %m_velocityTimeInterval, align 8
  ret void
}